; Function Attrs: mustprogress uwtable
define void @_ZN8proxygen15HTTPTransaction21updateAndSendPriorityEa(ptr noundef nonnull align 8 dereferenceable(912) %this, i8 noundef signext %newPriority) local_unnamed_addr #3 align 2 personality ptr @__gxx_personality_v0 {
entry:
  %agg.tmp = alloca %"class.proxygen::HTTPException", align 8
  %0 = add i8 %newPriority, -8
  %or.cond.i = icmp ult i8 %0, -15
  %1 = lshr i8 %newPriority, 4
  %2 = and i8 %1, 8
  %spec.select.i = add i8 %2, %newPriority
  %retval.0.i = select i1 %or.cond.i, i8 7, i8 %spec.select.i
  %cmp = icmp sgt i8 %retval.0.i, -1
  br i1 %cmp, label %if.end, label %if.then

if.then:                                          ; preds = %entry
  call void @_ZN8proxygen13HTTPExceptionC1ENS0_9DirectionEPKc(ptr noundef nonnull align 8 dereferenceable(96) %agg.tmp, i32 noundef 2, ptr noundef nonnull @.str.136)
  invoke void @_ZN8proxygen15HTTPTransaction18invariantViolationENS_13HTTPExceptionE(ptr noundef nonnull align 8 dereferenceable(912) %this, ptr noundef nonnull %agg.tmp)
          to label %invoke.cont unwind label %lpad

invoke.cont:                                      ; preds = %if.then
  store ptr getelementptr inbounds ({ [5 x ptr] }, ptr @_ZTVN8proxygen13HTTPExceptionE, i64 0, i32 0, i64 2), ptr %agg.tmp, align 8
  %partialMsg_.i = getelementptr inbounds i8, ptr %agg.tmp, i64 88
  %3 = load ptr, ptr %partialMsg_.i, align 8
  %cmp.not.i.i = icmp eq ptr %3, null
  br i1 %cmp.not.i.i, label %_ZNSt10unique_ptrIN8proxygen11HTTPMessageESt14default_deleteIS1_EED2Ev.exit.i, label %_ZNKSt14default_deleteIN8proxygen11HTTPMessageEEclEPS1_.exit.i.i

_ZNKSt14default_deleteIN8proxygen11HTTPMessageEEclEPS1_.exit.i.i: ; preds = %invoke.cont
  call void @_ZN8proxygen11HTTPMessageD1Ev(ptr noundef nonnull align 8 dereferenceable(616) %3) #27
  call void @_ZdlPv(ptr noundef nonnull %3) #28
  br label %_ZNSt10unique_ptrIN8proxygen11HTTPMessageESt14default_deleteIS1_EED2Ev.exit.i

_ZNSt10unique_ptrIN8proxygen11HTTPMessageESt14default_deleteIS1_EED2Ev.exit.i: ; preds = %_ZNKSt14default_deleteIN8proxygen11HTTPMessageEEclEPS1_.exit.i.i, %invoke.cont
  store ptr null, ptr %partialMsg_.i, align 8
  %currentIngressBuf_.i = getelementptr inbounds i8, ptr %agg.tmp, i64 80
  %4 = load ptr, ptr %currentIngressBuf_.i, align 8
  %cmp.not.i1.i = icmp eq ptr %4, null
  br i1 %cmp.not.i1.i, label %_ZN8proxygen13HTTPExceptionD2Ev.exit, label %_ZNKSt14default_deleteIN5folly5IOBufEEclEPS1_.exit.i.i

_ZNKSt14default_deleteIN5folly5IOBufEEclEPS1_.exit.i.i: ; preds = %_ZNSt10unique_ptrIN8proxygen11HTTPMessageESt14default_deleteIS1_EED2Ev.exit.i
  call void @_ZN5folly5IOBufD1Ev(ptr noundef nonnull align 8 dereferenceable(56) %4) #27
  call void @_ZN5folly5IOBufdlEPv(ptr noundef nonnull %4) #27
  br label %_ZN8proxygen13HTTPExceptionD2Ev.exit

_ZN8proxygen13HTTPExceptionD2Ev.exit:             ; preds = %_ZNSt10unique_ptrIN8proxygen11HTTPMessageESt14default_deleteIS1_EED2Ev.exit.i, %_ZNKSt14default_deleteIN5folly5IOBufEEclEPS1_.exit.i.i
  store ptr null, ptr %currentIngressBuf_.i, align 8
  store ptr getelementptr inbounds ({ [5 x ptr] }, ptr @_ZTVN8proxygen9ExceptionE, i64 0, i32 0, i64 2), ptr %agg.tmp, align 8
  %msg_.i.i = getelementptr inbounds i8, ptr %agg.tmp, i64 8
  call void @_ZNSt7__cxx1112basic_stringIcSt11char_traitsIcESaIcEED1Ev(ptr noundef nonnull align 8 dereferenceable(32) %msg_.i.i) #27
  call void @_ZNSt9exceptionD2Ev(ptr noundef nonnull align 8 dereferenceable(8) %agg.tmp) #27
  br label %return

lpad:                                             ; preds = %if.then
  %5 = landingpad { ptr, i32 }
          cleanup
  call void @_ZN8proxygen13HTTPExceptionD2Ev(ptr noundef nonnull align 8 dereferenceable(96) %agg.tmp) #27
  resume { ptr, i32 } %5

if.end:                                           ; preds = %entry
  %transport_ = getelementptr inbounds i8, ptr %this, i64 272
  %6 = load ptr, ptr %transport_, align 8
  %vtable = load ptr, ptr %6, align 8
  %vfn = getelementptr inbounds i8, ptr %vtable, i64 224
  %7 = load ptr, ptr %vfn, align 8
  %call2 = tail call noundef nonnull align 8 dereferenceable(8) ptr %7(ptr noundef nonnull align 8 dereferenceable(8) %6) #27
  %vtable3 = load ptr, ptr %call2, align 8
  %vfn4 = getelementptr inbounds i8, ptr %vtable3, i64 416
  %8 = load ptr, ptr %vfn4, align 8
  %call5 = tail call noundef i64 %8(ptr noundef nonnull align 8 dereferenceable(8) %call2, i8 noundef zeroext %retval.0.i)
  %priority_ = getelementptr inbounds i8, ptr %this, i64 552
  store i64 %call5, ptr %priority_, align 8
  %queueHandle_ = getelementptr inbounds i8, ptr %this, i64 408
  %9 = load ptr, ptr %queueHandle_, align 8
  %tobool.not = icmp eq ptr %9, null
  br i1 %tobool.not, label %if.end14, label %if.then6

if.then6:                                         ; preds = %if.end
  %egressQueue_ = getelementptr inbounds i8, ptr %this, i64 400
  %10 = load ptr, ptr %egressQueue_, align 8
  %agg.tmp8.sroa.2.0.priority_9.sroa_idx = getelementptr inbounds i8, ptr %this, i64 560
  %agg.tmp8.sroa.2.0.copyload = load i64, ptr %agg.tmp8.sroa.2.0.priority_9.sroa_idx, align 8
  %vtable10 = load ptr, ptr %10, align 8
  %vfn11 = getelementptr inbounds i8, ptr %vtable10, i64 32
  %11 = load ptr, ptr %vfn11, align 8
  %call12 = tail call noundef ptr %11(ptr noundef nonnull align 8 dereferenceable(16) %10, ptr noundef nonnull %9, i64 %call5, i64 %agg.tmp8.sroa.2.0.copyload, ptr noundef null)
  store ptr %call12, ptr %queueHandle_, align 8
  br label %if.end14

if.end14:                                         ; preds = %if.then6, %if.end
  %12 = load ptr, ptr %transport_, align 8
  %vtable17 = load ptr, ptr %12, align 8
  %vfn18 = getelementptr inbounds i8, ptr %vtable17, i64 104
  %13 = load ptr, ptr %vfn18, align 8
  %call19 = tail call noundef i64 %13(ptr noundef nonnull align 8 dereferenceable(8) %12, ptr noundef nonnull %this, ptr noundef nonnull align 8 dereferenceable(16) %priority_) #27
  br label %return

return:                                           ; preds = %if.end14, %_ZN8proxygen13HTTPExceptionD2Ev.exit
  ret void
}